; Function Attrs: mustprogress uwtable
define noundef i64 @_ZN7rocksdb12MemTableList40ApproximateUnflushedMemTablesMemoryUsageEv(ptr noundef nonnull readonly align 8 captures(none) dereferenceable(56) %0) local_unnamed_addr #4 align 2 {
  %2 = getelementptr inbounds nuw i8, ptr %0, i64 8
  %3 = load ptr, ptr %2, align 8, !tbaa !108
  %.sroa.05.08 = load ptr, ptr %3, align 8, !tbaa !18
  %.not9 = icmp eq ptr %.sroa.05.08, %3
  br i1 %.not9, label %._crit_edge, label %.lr.ph

._crit_edge:                                      ; preds = %.lr.ph, %1
  %.0.lcssa = phi i64 [ 0, %1 ], [ %10, %.lr.ph ]
  ret i64 %.0.lcssa

.lr.ph:                                           ; preds = %1, %.lr.ph
  %.sroa.05.011 = phi ptr [ %.sroa.05.0, %.lr.ph ], [ %.sroa.05.08, %1 ]
  %.010 = phi i64 [ %10, %.lr.ph ], [ 0, %1 ]
  %4 = getelementptr inbounds nuw i8, ptr %.sroa.05.011, i64 16
  %5 = load ptr, ptr %4, align 8, !tbaa !21
  %6 = load ptr, ptr %5, align 8, !tbaa !27
  %7 = getelementptr inbounds nuw i8, ptr %6, i64 24
  %8 = load ptr, ptr %7, align 8
  %9 = tail call noundef i64 %8(ptr noundef nonnull align 8 dereferenceable(560) %5)
  %10 = add i64 %9, %.010
  %.sroa.05.0 = load ptr, ptr %.sroa.05.011, align 8, !tbaa !18
  %.not = icmp eq ptr %.sroa.05.0, %3
  br i1 %.not, label %._crit_edge, label %.lr.ph
}